target datalayout = "e-m:e-p270:32:32-p271:32:32-p272:64:64-i64:64-i128:128-f80:128-n8:16:32:64-S128"
target triple = "x86_64-pc-linux-gnu"

%class.EnumRange = type { i32, i32 }
%class.EnumIterator = type { i32 }

@_ZN9vmSymbols16_type_signaturesE = hidden global [15 x ptr] zeroinitializer, align 16
@_ZL16vm_symbol_bodies = internal global ptr @.str, align 8
@_ZN6Symbol11_vm_symbolsE = external global [0 x ptr], align 8
@_ZL15vm_symbol_index = internal global [1170 x i32] zeroinitializer, align 16

; Function Attrs: mustprogress nounwind uwtable
define linkonce_odr hidden noundef i32 @_ZN20PrimitiveConversions4castIiiTnNSt9enable_ifIXcvbeqstT_stT0_EiE4typeELi0ETnNS1_IXcvbsr3std11is_integralIS2_EE5valueEiE4typeELi0ETnNS1_IXcvbsr3std11is_integralIS3_EE5valueEiE4typeELi0EEES2_S3_(i32 noundef %0) #1 comdat align 2 {
  %2 = alloca i32, align 4
  store i32 %0, ptr %2, align 4
  %3 = load i32, ptr %2, align 4
  ret i32 %3
}

; Function Attrs: mustprogress nounwind uwtable
define linkonce_odr hidden void @_ZN19EnumIterationTraitsI10vmSymbolIDE15assert_in_rangeIS0_EEvT_S3_S3_(i32 noundef %0, i32 noundef %1, i32 noundef %2) #1 comdat align 2 {
  %4 = alloca i32, align 4
  %5 = alloca i32, align 4
  %6 = alloca i32, align 4
  store i32 %0, ptr %4, align 4
  store i32 %1, ptr %5, align 4
  store i32 %2, ptr %6, align 4
  ret void
}

; Function Attrs: mustprogress nounwind uwtable
define linkonce_odr hidden noundef i32 @_ZN20PrimitiveConversions4castI10vmSymbolIDiTnNSt9enable_ifIXcvbcl10check_castIT_T0_EEEiE4typeELi0ETnNS2_IXcvbsr3std7is_enumIS3_EE5valueEiE4typeELi0EEES3_S4_(i32 noundef %0) #1 comdat align 2 {
  %2 = alloca i32, align 4
  store i32 %0, ptr %2, align 4
  %3 = load i32, ptr %2, align 4
  %4 = call noundef i32 @_ZN20PrimitiveConversions4castIiiTnNSt9enable_ifIXcvbeqstT_stT0_EiE4typeELi0ETnNS1_IXcvbsr3std11is_integralIS2_EE5valueEiE4typeELi0ETnNS1_IXcvbsr3std11is_integralIS3_EE5valueEiE4typeELi0EEES2_S3_(i32 noundef %3)
  ret i32 %4
}

; Function Attrs: mustprogress nounwind uwtable
define linkonce_odr hidden noundef i32 @_ZN19EnumIterationTraitsI10vmSymbolIDE16underlying_valueES0_(i32 noundef %0) #1 comdat align 2 {
  %2 = alloca i32, align 4
  store i32 %0, ptr %2, align 4
  %3 = load i32, ptr %2, align 4
  ret i32 %3
}

; Function Attrs: mustprogress nounwind uwtable
define linkonce_odr hidden void @_ZN9EnumRangeI10vmSymbolIDEC2ES0_S0_(ptr noundef nonnull align 4 dereferenceable(8) %0, i32 noundef %1, i32 noundef %2) unnamed_addr #1 comdat align 2 {
  %4 = alloca ptr, align 8
  %5 = alloca i32, align 4
  %6 = alloca i32, align 4
  store ptr %0, ptr %4, align 8
  store i32 %1, ptr %5, align 4
  store i32 %2, ptr %6, align 4
  %7 = load ptr, ptr %4, align 8
  %8 = getelementptr inbounds %class.EnumRange, ptr %7, i32 0, i32 0
  %9 = load i32, ptr %5, align 4
  %10 = call noundef i32 @_ZN19EnumIterationTraitsI10vmSymbolIDE16underlying_valueES0_(i32 noundef %9)
  store i32 %10, ptr %8, align 4
  %11 = getelementptr inbounds %class.EnumRange, ptr %7, i32 0, i32 1
  %12 = load i32, ptr %6, align 4
  %13 = call noundef i32 @_ZN19EnumIterationTraitsI10vmSymbolIDE16underlying_valueES0_(i32 noundef %12)
  store i32 %13, ptr %11, align 4
  %14 = load i32, ptr %5, align 4
  %15 = call noundef i32 @_ZN20PrimitiveConversions4castI10vmSymbolIDiTnNSt9enable_ifIXcvbcl10check_castIT_T0_EEEiE4typeELi0ETnNS2_IXcvbsr3std7is_enumIS3_EE5valueEiE4typeELi0EEES3_S4_(i32 noundef 1)
  %16 = call noundef i32 @_ZN20PrimitiveConversions4castI10vmSymbolIDiTnNSt9enable_ifIXcvbcl10check_castIT_T0_EEEiE4typeELi0ETnNS2_IXcvbsr3std7is_enumIS3_EE5valueEiE4typeELi0EEES3_S4_(i32 noundef 1170)
  call void @_ZN19EnumIterationTraitsI10vmSymbolIDE15assert_in_rangeIS0_EEvT_S3_S3_(i32 noundef %14, i32 noundef %15, i32 noundef %16)
  %17 = load i32, ptr %6, align 4
  %18 = call noundef i32 @_ZN20PrimitiveConversions4castI10vmSymbolIDiTnNSt9enable_ifIXcvbcl10check_castIT_T0_EEEiE4typeELi0ETnNS2_IXcvbsr3std7is_enumIS3_EE5valueEiE4typeELi0EEES3_S4_(i32 noundef 1)
  %19 = call noundef i32 @_ZN20PrimitiveConversions4castI10vmSymbolIDiTnNSt9enable_ifIXcvbcl10check_castIT_T0_EEEiE4typeELi0ETnNS2_IXcvbsr3std7is_enumIS3_EE5valueEiE4typeELi0EEES3_S4_(i32 noundef 1170)
  call void @_ZN19EnumIterationTraitsI10vmSymbolIDE15assert_in_rangeIS0_EEvT_S3_S3_(i32 noundef %17, i32 noundef %18, i32 noundef %19)
  ret void
}

; Function Attrs: mustprogress nounwind uwtable
define linkonce_odr hidden void @_ZNK12EnumIteratorI10vmSymbolIDE16assert_in_boundsEv(ptr noundef nonnull align 4 dereferenceable(4) %0) #1 comdat align 2 {
  %2 = alloca ptr, align 8
  store ptr %0, ptr %2, align 8
  ret void
}

; Function Attrs: mustprogress nounwind uwtable
define linkonce_odr hidden void @_ZN12EnumIteratorI10vmSymbolIDEC2ES0_(ptr noundef nonnull align 4 dereferenceable(4) %0, i32 noundef %1) unnamed_addr #1 comdat align 2 {
  %3 = alloca ptr, align 8
  %4 = alloca i32, align 4
  store ptr %0, ptr %3, align 8
  store i32 %1, ptr %4, align 4
  %5 = load ptr, ptr %3, align 8
  %6 = getelementptr inbounds %class.EnumIterator, ptr %5, i32 0, i32 0
  %7 = load i32, ptr %4, align 4
  %8 = call noundef i32 @_ZN19EnumIterationTraitsI10vmSymbolIDE16underlying_valueES0_(i32 noundef %7)
  store i32 %8, ptr %6, align 4
  %9 = load i32, ptr %4, align 4
  %10 = call noundef i32 @_ZN20PrimitiveConversions4castI10vmSymbolIDiTnNSt9enable_ifIXcvbcl10check_castIT_T0_EEEiE4typeELi0ETnNS2_IXcvbsr3std7is_enumIS3_EE5valueEiE4typeELi0EEES3_S4_(i32 noundef 1)
  %11 = call noundef i32 @_ZN20PrimitiveConversions4castI10vmSymbolIDiTnNSt9enable_ifIXcvbcl10check_castIT_T0_EEEiE4typeELi0ETnNS2_IXcvbsr3std7is_enumIS3_EE5valueEiE4typeELi0EEES3_S4_(i32 noundef 1170)
  call void @_ZN19EnumIterationTraitsI10vmSymbolIDE15assert_in_rangeIS0_EEvT_S3_S3_(i32 noundef %9, i32 noundef %10, i32 noundef %11)
  ret void
}

; Function Attrs: mustprogress nounwind uwtable
define linkonce_odr hidden void @_ZN9EnumRangeI10vmSymbolIDEC2ES0_(ptr noundef nonnull align 4 dereferenceable(8) %0, i32 noundef %1) unnamed_addr #1 comdat align 2 {
  %3 = alloca ptr, align 8
  %4 = alloca i32, align 4
  store ptr %0, ptr %3, align 8
  store i32 %1, ptr %4, align 4
  %5 = load ptr, ptr %3, align 8
  %6 = load i32, ptr %4, align 4
  %7 = call noundef i32 @_ZN19EnumIterationTraitsI10vmSymbolIDE10enumeratorEi(i32 noundef 1170)
  call void @_ZN9EnumRangeI10vmSymbolIDEC2ES0_S0_(ptr noundef nonnull align 4 dereferenceable(8) %5, i32 noundef %6, i32 noundef %7)
  ret void
}

; Function Attrs: mustprogress nounwind uwtable
define linkonce_odr hidden noundef i32 @_ZN19EnumIterationTraitsI10vmSymbolIDE10enumeratorEi(i32 noundef %0) #1 comdat align 2 {
  %2 = alloca i32, align 4
  store i32 %0, ptr %2, align 4
  %3 = load i32, ptr %2, align 4
  ret i32 %3
}

; Function Attrs: mustprogress nounwind uwtable
define linkonce_odr hidden noundef ptr @_ZN9vmSymbols14void_signatureEv() #1 comdat align 2 {
  %1 = load ptr, ptr getelementptr inbounds ([0 x ptr], ptr @_ZN6Symbol11_vm_symbolsE, i64 0, i64 878), align 8
  ret ptr %1
}

; Function Attrs: mustprogress nounwind uwtable
define linkonce_odr hidden noundef ptr @_ZN9vmSymbols14bool_signatureEv() #1 comdat align 2 {
  %1 = load ptr, ptr getelementptr inbounds ([0 x ptr], ptr @_ZN6Symbol11_vm_symbolsE, i64 0, i64 877), align 8
  ret ptr %1
}

; Function Attrs: mustprogress nounwind uwtable
define linkonce_odr hidden noundef ptr @_ZN9vmSymbols15short_signatureEv() #1 comdat align 2 {
  %1 = load ptr, ptr getelementptr inbounds ([0 x ptr], ptr @_ZN6Symbol11_vm_symbolsE, i64 0, i64 876), align 8
  ret ptr %1
}

; Function Attrs: mustprogress nounwind uwtable
define linkonce_odr hidden noundef ptr @_ZN9vmSymbols14long_signatureEv() #1 comdat align 2 {
  %1 = load ptr, ptr getelementptr inbounds ([0 x ptr], ptr @_ZN6Symbol11_vm_symbolsE, i64 0, i64 875), align 8
  ret ptr %1
}

; Function Attrs: mustprogress nounwind uwtable
define linkonce_odr hidden noundef ptr @_ZN9vmSymbols13int_signatureEv() #1 comdat align 2 {
  %1 = load ptr, ptr getelementptr inbounds ([0 x ptr], ptr @_ZN6Symbol11_vm_symbolsE, i64 0, i64 874), align 8
  ret ptr %1
}

; Function Attrs: mustprogress nounwind uwtable
define linkonce_odr hidden noundef ptr @_ZN9vmSymbols15float_signatureEv() #1 comdat align 2 {
  %1 = load ptr, ptr getelementptr inbounds ([0 x ptr], ptr @_ZN6Symbol11_vm_symbolsE, i64 0, i64 873), align 8
  ret ptr %1
}

; Function Attrs: mustprogress nounwind uwtable
define linkonce_odr hidden noundef ptr @_ZN9vmSymbols16double_signatureEv() #1 comdat align 2 {
  %1 = load ptr, ptr getelementptr inbounds ([0 x ptr], ptr @_ZN6Symbol11_vm_symbolsE, i64 0, i64 872), align 8
  ret ptr %1
}

; Function Attrs: mustprogress nounwind uwtable
define linkonce_odr hidden noundef ptr @_ZN9vmSymbols14char_signatureEv() #1 comdat align 2 {
  %1 = load ptr, ptr getelementptr inbounds ([0 x ptr], ptr @_ZN6Symbol11_vm_symbolsE, i64 0, i64 871), align 8
  ret ptr %1
}

; Function Attrs: mustprogress nounwind uwtable
define linkonce_odr hidden noundef ptr @_ZN9vmSymbols14byte_signatureEv() #1 comdat align 2 {
  %1 = load ptr, ptr getelementptr inbounds ([0 x ptr], ptr @_ZN6Symbol11_vm_symbolsE, i64 0, i64 870), align 8
  ret ptr %1
}

; Function Attrs: mustprogress nounwind uwtable
define linkonce_odr hidden noundef nonnull align 4 dereferenceable(4) ptr @_ZN12EnumIteratorI10vmSymbolIDEppEv(ptr noundef nonnull align 4 dereferenceable(4) %0) #1 comdat align 2 {
  %2 = alloca ptr, align 8
  store ptr %0, ptr %2, align 8
  %3 = load ptr, ptr %2, align 8
  call void @_ZNK12EnumIteratorI10vmSymbolIDE16assert_in_boundsEv(ptr noundef nonnull align 4 dereferenceable(4) %3)
  %4 = getelementptr inbounds %class.EnumIterator, ptr %3, i32 0, i32 0
  %5 = load i32, ptr %4, align 4
  %6 = add nsw i32 %5, 1
  store i32 %6, ptr %4, align 4
  ret ptr %3
}

; Function Attrs: mustprogress nounwind uwtable
define linkonce_odr hidden noundef i32 @_ZN9vmSymbols6as_intE10vmSymbolID(i32 noundef %0) #1 comdat align 2 {
  %2 = alloca i32, align 4
  store i32 %0, ptr %2, align 4
  %3 = load i32, ptr %2, align 4
  ret i32 %3
}

; Function Attrs: mustprogress nounwind uwtable
define linkonce_odr hidden noundef i32 @_ZNK12EnumIteratorI10vmSymbolIDEdeEv(ptr noundef nonnull align 4 dereferenceable(4) %0) #1 comdat align 2 {
  %2 = alloca ptr, align 8
  store ptr %0, ptr %2, align 8
  %3 = load ptr, ptr %2, align 8
  call void @_ZNK12EnumIteratorI10vmSymbolIDE16assert_in_boundsEv(ptr noundef nonnull align 4 dereferenceable(4) %3)
  %4 = getelementptr inbounds %class.EnumIterator, ptr %3, i32 0, i32 0
  %5 = load i32, ptr %4, align 4
  %6 = call noundef i32 @_ZN19EnumIterationTraitsI10vmSymbolIDE10enumeratorEi(i32 noundef %5)
  ret i32 %6
}

; Function Attrs: mustprogress nounwind uwtable
define linkonce_odr hidden noundef zeroext i1 @_ZNK12EnumIteratorI10vmSymbolIDEneES1_(ptr noundef nonnull align 4 dereferenceable(4) %0, i32 %1) #1 comdat align 2 {
  %3 = alloca %class.EnumIterator, align 4
  %4 = alloca ptr, align 8
  %5 = getelementptr inbounds %class.EnumIterator, ptr %3, i32 0, i32 0
  store i32 %1, ptr %5, align 4
  store ptr %0, ptr %4, align 8
  %6 = load ptr, ptr %4, align 8
  %7 = getelementptr inbounds %class.EnumIterator, ptr %6, i32 0, i32 0
  %8 = load i32, ptr %7, align 4
  %9 = getelementptr inbounds %class.EnumIterator, ptr %3, i32 0, i32 0
  %10 = load i32, ptr %9, align 4
  %11 = icmp ne i32 %8, %10
  ret i1 %11
}

; Function Attrs: mustprogress nounwind uwtable
define linkonce_odr hidden i32 @_ZNK9EnumRangeI10vmSymbolIDE3endEv(ptr noundef nonnull align 4 dereferenceable(8) %0) #1 comdat align 2 {
  %2 = alloca %class.EnumIterator, align 4
  %3 = alloca ptr, align 8
  store ptr %0, ptr %3, align 8
  %4 = load ptr, ptr %3, align 8
  %5 = getelementptr inbounds %class.EnumRange, ptr %4, i32 0, i32 1
  %6 = load i32, ptr %5, align 4
  %7 = call noundef i32 @_ZN19EnumIterationTraitsI10vmSymbolIDE10enumeratorEi(i32 noundef %6)
  call void @_ZN12EnumIteratorI10vmSymbolIDEC2ES0_(ptr noundef nonnull align 4 dereferenceable(4) %2, i32 noundef %7)
  %8 = getelementptr inbounds %class.EnumIterator, ptr %2, i32 0, i32 0
  %9 = load i32, ptr %8, align 4
  ret i32 %9
}

; Function Attrs: mustprogress nounwind uwtable
define linkonce_odr hidden i32 @_ZNK9EnumRangeI10vmSymbolIDE5beginEv(ptr noundef nonnull align 4 dereferenceable(8) %0) #1 comdat align 2 {
  %2 = alloca %class.EnumIterator, align 4
  %3 = alloca ptr, align 8
  store ptr %0, ptr %3, align 8
  %4 = load ptr, ptr %3, align 8
  %5 = getelementptr inbounds %class.EnumRange, ptr %4, i32 0, i32 0
  %6 = load i32, ptr %5, align 4
  %7 = call noundef i32 @_ZN19EnumIterationTraitsI10vmSymbolIDE10enumeratorEi(i32 noundef %6)
  call void @_ZN12EnumIteratorI10vmSymbolIDEC2ES0_(ptr noundef nonnull align 4 dereferenceable(4) %2, i32 noundef %7)
  %8 = getelementptr inbounds %class.EnumIterator, ptr %2, i32 0, i32 0
  %9 = load i32, ptr %8, align 4
  ret i32 %9
}

; Function Attrs: mustprogress nounwind uwtable
define linkonce_odr hidden void @_ZN9EnumRangeI10vmSymbolIDEC2Ev(ptr noundef nonnull align 4 dereferenceable(8) %0) unnamed_addr #1 comdat align 2 {
  %2 = alloca ptr, align 8
  store ptr %0, ptr %2, align 8
  %3 = load ptr, ptr %2, align 8
  %4 = call noundef i32 @_ZN19EnumIterationTraitsI10vmSymbolIDE10enumeratorEi(i32 noundef 1)
  call void @_ZN9EnumRangeI10vmSymbolIDEC2ES0_(ptr noundef nonnull align 4 dereferenceable(8) %3, i32 noundef %4)
  ret void
}

; Function Attrs: mustprogress nounwind uwtable
define hidden void @_ZN9vmSymbols10initializeEv() #1 align 2 {
  %1 = alloca ptr, align 8
  %2 = alloca ptr, align 8
  %3 = alloca %class.EnumRange, align 4
  %4 = alloca %class.EnumIterator, align 4
  %5 = alloca %class.EnumIterator, align 4
  %6 = alloca %class.EnumIterator, align 4
  %7 = alloca i32, align 4
  %8 = alloca ptr, align 8
  %9 = alloca ptr, align 8
  %10 = alloca %class.EnumRange, align 4
  %11 = alloca %class.EnumIterator, align 4
  %12 = alloca %class.EnumIterator, align 4
  %13 = alloca %class.EnumIterator, align 4
  %14 = alloca i32, align 4
  %15 = alloca i32, align 4
  %16 = call noundef zeroext i1 @_ZN9CDSConfig16is_using_archiveEv()
  br i1 %16, label %57, label %17

17:                                               ; preds = %0
  %18 = load ptr, ptr @_ZL16vm_symbol_bodies, align 8
  %19 = getelementptr inbounds i8, ptr %18, i64 0
  store ptr %19, ptr %1, align 8
  call void @_ZN9EnumRangeI10vmSymbolIDEC2Ev(ptr noundef nonnull align 4 dereferenceable(8) %3)
  store ptr %3, ptr %2, align 8
  %20 = load ptr, ptr %2, align 8
  %21 = call i32 @_ZNK9EnumRangeI10vmSymbolIDE5beginEv(ptr noundef nonnull align 4 dereferenceable(8) %20)
  %22 = getelementptr inbounds %class.EnumIterator, ptr %4, i32 0, i32 0
  store i32 %21, ptr %22, align 4
  %23 = load ptr, ptr %2, align 8
  %24 = call i32 @_ZNK9EnumRangeI10vmSymbolIDE3endEv(ptr noundef nonnull align 4 dereferenceable(8) %23)
  %25 = getelementptr inbounds %class.EnumIterator, ptr %5, i32 0, i32 0
  store i32 %24, ptr %25, align 4
  br label %26

26:                                               ; preds = %45, %17
  call void @llvm.memcpy.p0.p0.i64(ptr align 4 %6, ptr align 4 %5, i64 4, i1 false)
  %27 = getelementptr inbounds %class.EnumIterator, ptr %6, i32 0, i32 0
  %28 = load i32, ptr %27, align 4
  %29 = call noundef zeroext i1 @_ZNK12EnumIteratorI10vmSymbolIDEneES1_(ptr noundef nonnull align 4 dereferenceable(4) %4, i32 %28)
  br i1 %29, label %30, label %47

30:                                               ; preds = %26
  %31 = call noundef i32 @_ZNK12EnumIteratorI10vmSymbolIDEdeEv(ptr noundef nonnull align 4 dereferenceable(4) %4)
  store i32 %31, ptr %7, align 4
  %32 = load ptr, ptr %1, align 8
  %33 = call noundef ptr @_ZN11SymbolTable20new_permanent_symbolEPKc(ptr noundef %32)
  store ptr %33, ptr %8, align 8
  %34 = load ptr, ptr %8, align 8
  %35 = load i32, ptr %7, align 4
  %36 = call noundef i32 @_ZN9vmSymbols6as_intE10vmSymbolID(i32 noundef %35)
  %37 = sext i32 %36 to i64
  %38 = getelementptr inbounds [0 x ptr], ptr @_ZN6Symbol11_vm_symbolsE, i64 0, i64 %37
  store ptr %34, ptr %38, align 8
  %39 = load ptr, ptr %1, align 8
  %40 = call i64 @strlen(ptr noundef %39) #6
  %41 = load ptr, ptr %1, align 8
  %42 = getelementptr inbounds i8, ptr %41, i64 %40
  store ptr %42, ptr %1, align 8
  %43 = load ptr, ptr %1, align 8
  %44 = getelementptr inbounds i8, ptr %43, i64 1
  store ptr %44, ptr %1, align 8
  br label %45

45:                                               ; preds = %30
  %46 = call noundef nonnull align 4 dereferenceable(4) ptr @_ZN12EnumIteratorI10vmSymbolIDEppEv(ptr noundef nonnull align 4 dereferenceable(4) %4)
  br label %26

47:                                               ; preds = %26
  %48 = call noundef ptr @_ZN9vmSymbols14byte_signatureEv()
  store ptr %48, ptr getelementptr inbounds ([15 x ptr], ptr @_ZN9vmSymbols16_type_signaturesE, i64 0, i64 8), align 16
  %49 = call noundef ptr @_ZN9vmSymbols14char_signatureEv()
  store ptr %49, ptr getelementptr inbounds ([15 x ptr], ptr @_ZN9vmSymbols16_type_signaturesE, i64 0, i64 5), align 8
  %50 = call noundef ptr @_ZN9vmSymbols16double_signatureEv()
  store ptr %50, ptr getelementptr inbounds ([15 x ptr], ptr @_ZN9vmSymbols16_type_signaturesE, i64 0, i64 7), align 8
  %51 = call noundef ptr @_ZN9vmSymbols15float_signatureEv()
  store ptr %51, ptr getelementptr inbounds ([15 x ptr], ptr @_ZN9vmSymbols16_type_signaturesE, i64 0, i64 6), align 16
  %52 = call noundef ptr @_ZN9vmSymbols13int_signatureEv()
  store ptr %52, ptr getelementptr inbounds ([15 x ptr], ptr @_ZN9vmSymbols16_type_signaturesE, i64 0, i64 10), align 16
  %53 = call noundef ptr @_ZN9vmSymbols14long_signatureEv()
  store ptr %53, ptr getelementptr inbounds ([15 x ptr], ptr @_ZN9vmSymbols16_type_signaturesE, i64 0, i64 11), align 8
  %54 = call noundef ptr @_ZN9vmSymbols15short_signatureEv()
  store ptr %54, ptr getelementptr inbounds ([15 x ptr], ptr @_ZN9vmSymbols16_type_signaturesE, i64 0, i64 9), align 8
  %55 = call noundef ptr @_ZN9vmSymbols14bool_signatureEv()
  store ptr %55, ptr getelementptr inbounds ([15 x ptr], ptr @_ZN9vmSymbols16_type_signaturesE, i64 0, i64 4), align 16
  %56 = call noundef ptr @_ZN9vmSymbols14void_signatureEv()
  store ptr %56, ptr getelementptr inbounds ([15 x ptr], ptr @_ZN9vmSymbols16_type_signaturesE, i64 0, i64 14), align 16
  br label %57

57:                                               ; preds = %47, %0
  call void @_ZN9EnumRangeI10vmSymbolIDEC2Ev(ptr noundef nonnull align 4 dereferenceable(8) %10)
  store ptr %10, ptr %9, align 8
  %58 = load ptr, ptr %9, align 8
  %59 = call i32 @_ZNK9EnumRangeI10vmSymbolIDE5beginEv(ptr noundef nonnull align 4 dereferenceable(8) %58)
  %60 = getelementptr inbounds %class.EnumIterator, ptr %11, i32 0, i32 0
  store i32 %59, ptr %60, align 4
  %61 = load ptr, ptr %9, align 8
  %62 = call i32 @_ZNK9EnumRangeI10vmSymbolIDE3endEv(ptr noundef nonnull align 4 dereferenceable(8) %61)
  %63 = getelementptr inbounds %class.EnumIterator, ptr %12, i32 0, i32 0
  store i32 %62, ptr %63, align 4
  br label %64

64:                                               ; preds = %75, %57
  call void @llvm.memcpy.p0.p0.i64(ptr align 4 %13, ptr align 4 %12, i64 4, i1 false)
  %65 = getelementptr inbounds %class.EnumIterator, ptr %13, i32 0, i32 0
  %66 = load i32, ptr %65, align 4
  %67 = call noundef zeroext i1 @_ZNK12EnumIteratorI10vmSymbolIDEneES1_(ptr noundef nonnull align 4 dereferenceable(4) %11, i32 %66)
  br i1 %67, label %68, label %77

68:                                               ; preds = %64
  %69 = call noundef i32 @_ZNK12EnumIteratorI10vmSymbolIDEdeEv(ptr noundef nonnull align 4 dereferenceable(4) %11)
  store i32 %69, ptr %14, align 4
  %70 = load i32, ptr %14, align 4
  %71 = load i32, ptr %14, align 4
  %72 = call noundef i32 @_ZN9vmSymbols6as_intE10vmSymbolID(i32 noundef %71)
  %73 = sext i32 %72 to i64
  %74 = getelementptr inbounds [1170 x i32], ptr @_ZL15vm_symbol_index, i64 0, i64 %73
  store i32 %70, ptr %74, align 4
  br label %75

75:                                               ; preds = %68
  %76 = call noundef nonnull align 4 dereferenceable(4) ptr @_ZN12EnumIteratorI10vmSymbolIDEppEv(ptr noundef nonnull align 4 dereferenceable(4) %11)
  br label %64

77:                                               ; preds = %64
  store i32 1169, ptr %15, align 4
  %78 = load i32, ptr %15, align 4
  %79 = sext i32 %78 to i64
  call void @qsort(ptr noundef getelementptr inbounds ([1170 x i32], ptr @_ZL15vm_symbol_index, i64 0, i64 1), i64 noundef %79, i64 noundef 4, ptr noundef @_ZL20compare_vmsymbol_sidPKvS0_)
  ret void
}