; Function Attrs: mustprogress nounwind uwtable
define hidden void @_ZN9vmSymbols10initializeEv() local_unnamed_addr #0 align 2 {
  %1 = tail call noundef zeroext i1 @_ZN9CDSConfig16is_using_archiveEv() #9
  br i1 %1, label %.preheader31, label %.preheader

.preheader:                                       ; preds = %0, %.preheader
  %indvars.iv = phi i64 [ %indvars.iv.next, %.preheader ], [ 1, %0 ]
  %.025 = phi ptr [ %6, %.preheader ], [ @.str, %0 ]
  %2 = tail call noundef ptr @_ZN11SymbolTable20new_permanent_symbolEPKc(ptr noundef nonnull %.025) #9
  %3 = getelementptr inbounds [0 x ptr], ptr @_ZN6Symbol11_vm_symbolsE, i64 0, i64 %indvars.iv
  store ptr %2, ptr %3, align 8
  %4 = tail call i64 @strlen(ptr noundef nonnull dereferenceable(1) %.025) #10
  %5 = getelementptr inbounds i8, ptr %.025, i64 %4
  %6 = getelementptr inbounds i8, ptr %5, i64 1
  %indvars.iv.next = add nuw nsw i64 %indvars.iv, 1
  %.not = icmp eq i64 %indvars.iv.next, 1170
  br i1 %.not, label %7, label %.preheader

7:                                                ; preds = %.preheader
  %8 = load ptr, ptr getelementptr inbounds (i8, ptr @_ZN6Symbol11_vm_symbolsE, i64 6960), align 8
  store ptr %8, ptr getelementptr inbounds (i8, ptr @_ZN9vmSymbols16_type_signaturesE, i64 64), align 16
  %9 = load ptr, ptr getelementptr inbounds (i8, ptr @_ZN6Symbol11_vm_symbolsE, i64 6968), align 8
  store ptr %9, ptr getelementptr inbounds (i8, ptr @_ZN9vmSymbols16_type_signaturesE, i64 40), align 8
  %10 = load <2 x ptr>, ptr getelementptr inbounds (i8, ptr @_ZN6Symbol11_vm_symbolsE, i64 6976), align 8
  %11 = shufflevector <2 x ptr> %10, <2 x ptr> poison, <2 x i32> <i32 1, i32 0>
  store <2 x ptr> %11, ptr getelementptr inbounds (i8, ptr @_ZN9vmSymbols16_type_signaturesE, i64 48), align 16
  %12 = load <2 x ptr>, ptr getelementptr inbounds (i8, ptr @_ZN6Symbol11_vm_symbolsE, i64 6992), align 8
  store <2 x ptr> %12, ptr getelementptr inbounds (i8, ptr @_ZN9vmSymbols16_type_signaturesE, i64 80), align 16
  %13 = load ptr, ptr getelementptr inbounds (i8, ptr @_ZN6Symbol11_vm_symbolsE, i64 7008), align 8
  store ptr %13, ptr getelementptr inbounds (i8, ptr @_ZN9vmSymbols16_type_signaturesE, i64 72), align 8
  %14 = load ptr, ptr getelementptr inbounds (i8, ptr @_ZN6Symbol11_vm_symbolsE, i64 7016), align 8
  store ptr %14, ptr getelementptr inbounds (i8, ptr @_ZN9vmSymbols16_type_signaturesE, i64 32), align 16
  %15 = load ptr, ptr getelementptr inbounds (i8, ptr @_ZN6Symbol11_vm_symbolsE, i64 7024), align 8
  store ptr %15, ptr getelementptr inbounds (i8, ptr @_ZN9vmSymbols16_type_signaturesE, i64 112), align 16
  br label %.preheader31

.preheader31:                                     ; preds = %7, %0
  br label %16

16:                                               ; preds = %.preheader31, %16
  %indvars.iv28 = phi i64 [ %indvars.iv.next29, %16 ], [ 1, %.preheader31 ]
  %17 = getelementptr inbounds [1170 x i32], ptr @_ZL15vm_symbol_index, i64 0, i64 %indvars.iv28
  %18 = trunc nuw nsw i64 %indvars.iv28 to i32
  store i32 %18, ptr %17, align 4
  %indvars.iv.next29 = add nuw nsw i64 %indvars.iv28, 1
  %.not23 = icmp eq i64 %indvars.iv.next29, 1170
  br i1 %.not23, label %19, label %16

19:                                               ; preds = %16
  tail call void @qsort(ptr noundef nonnull getelementptr inbounds (i8, ptr @_ZL15vm_symbol_index, i64 4), i64 noundef 1169, i64 noundef 4, ptr noundef nonnull @_ZL20compare_vmsymbol_sidPKvS0_) #9
  ret void
}